; Function Attrs: mustprogress nounwind uwtable
define noundef zeroext i1 @_ZN3gmx15equalIgnoreDashERKNSt7__cxx1112basic_stringIcSt11char_traitsIcESaIcEEES7_(ptr noundef nonnull align 8 dereferenceable(32) %0, ptr noundef nonnull align 8 dereferenceable(32) %1) local_unnamed_addr #3 {
  %3 = tail call noundef i64 @_ZNKSt7__cxx1112basic_stringIcSt11char_traitsIcESaIcEE6lengthEv(ptr noundef nonnull align 8 dereferenceable(32) %0) #22
  %4 = tail call noundef i64 @_ZNKSt7__cxx1112basic_stringIcSt11char_traitsIcESaIcEE6lengthEv(ptr noundef nonnull align 8 dereferenceable(32) %1) #22
  %5 = icmp eq i64 %3, %4
  br i1 %5, label %6, label %"_ZSt5equalIN9__gnu_cxx17__normal_iteratorIPKcNSt7__cxx1112basic_stringIcSt11char_traitsIcESaIcEEEEESA_ZN3gmx15equalIgnoreDashERKS9_SD_E3$_0EbT_SF_T0_T1_.exit"

6:                                                ; preds = %2
  %7 = tail call ptr @_ZNKSt7__cxx1112basic_stringIcSt11char_traitsIcESaIcEE5beginEv(ptr noundef nonnull align 8 dereferenceable(32) %0) #22
  %8 = tail call ptr @_ZNKSt7__cxx1112basic_stringIcSt11char_traitsIcESaIcEE3endEv(ptr noundef nonnull align 8 dereferenceable(32) %0) #22
  %9 = tail call ptr @_ZNKSt7__cxx1112basic_stringIcSt11char_traitsIcESaIcEE5beginEv(ptr noundef nonnull align 8 dereferenceable(32) %1) #22
  %.not7.i = icmp eq ptr %7, %8
  br i1 %.not7.i, label %"_ZSt5equalIN9__gnu_cxx17__normal_iteratorIPKcNSt7__cxx1112basic_stringIcSt11char_traitsIcESaIcEEEEESA_ZN3gmx15equalIgnoreDashERKS9_SD_E3$_0EbT_SF_T0_T1_.exit", label %.lr.ph.i

.lr.ph.i:                                         ; preds = %6, %"_ZZN3gmx15equalIgnoreDashERKNSt7__cxx1112basic_stringIcSt11char_traitsIcESaIcEEES7_ENK3$_0clERKcSA_.exit.i"
  %.sroa.0.09.i = phi ptr [ %21, %"_ZZN3gmx15equalIgnoreDashERKNSt7__cxx1112basic_stringIcSt11char_traitsIcESaIcEEES7_ENK3$_0clERKcSA_.exit.i" ], [ %9, %6 ]
  %.sroa.04.08.i = phi ptr [ %20, %"_ZZN3gmx15equalIgnoreDashERKNSt7__cxx1112basic_stringIcSt11char_traitsIcESaIcEEES7_ENK3$_0clERKcSA_.exit.i" ], [ %7, %6 ]
  %.val.i = load i8, ptr %.sroa.04.08.i, align 1
  %.val1.i = load i8, ptr %.sroa.0.09.i, align 1
  %10 = sext i8 %.val.i to i32
  switch i8 %.val.i, label %13 [
    i8 45, label %11
    i8 95, label %11
  ]

11:                                               ; preds = %.lr.ph.i, %.lr.ph.i
  %12 = tail call i32 @toupper(i32 noundef %10) #21
  br label %13

13:                                               ; preds = %11, %.lr.ph.i
  %14 = phi i32 [ %12, %11 ], [ %10, %.lr.ph.i ]
  %15 = sext i8 %.val1.i to i32
  switch i8 %.val1.i, label %"_ZZN3gmx15equalIgnoreDashERKNSt7__cxx1112basic_stringIcSt11char_traitsIcESaIcEEES7_ENK3$_0clERKcSA_.exit.i" [
    i8 45, label %16
    i8 95, label %16
  ]

16:                                               ; preds = %13, %13
  %17 = tail call i32 @toupper(i32 noundef %15) #21
  br label %"_ZZN3gmx15equalIgnoreDashERKNSt7__cxx1112basic_stringIcSt11char_traitsIcESaIcEEES7_ENK3$_0clERKcSA_.exit.i"

"_ZZN3gmx15equalIgnoreDashERKNSt7__cxx1112basic_stringIcSt11char_traitsIcESaIcEEES7_ENK3$_0clERKcSA_.exit.i": ; preds = %16, %13
  %18 = phi i32 [ %17, %16 ], [ %15, %13 ]
  %19 = icmp eq i32 %14, %18
  %20 = getelementptr inbounds i8, ptr %.sroa.04.08.i, i64 1
  %21 = getelementptr inbounds i8, ptr %.sroa.0.09.i, i64 1
  %.not.i = icmp ne ptr %20, %8
  %or.cond.not = select i1 %19, i1 %.not.i, i1 false
  br i1 %or.cond.not, label %.lr.ph.i, label %"_ZSt5equalIN9__gnu_cxx17__normal_iteratorIPKcNSt7__cxx1112basic_stringIcSt11char_traitsIcESaIcEEEEESA_ZN3gmx15equalIgnoreDashERKS9_SD_E3$_0EbT_SF_T0_T1_.exit", !llvm.loop !20

"_ZSt5equalIN9__gnu_cxx17__normal_iteratorIPKcNSt7__cxx1112basic_stringIcSt11char_traitsIcESaIcEEEEESA_ZN3gmx15equalIgnoreDashERKS9_SD_E3$_0EbT_SF_T0_T1_.exit": ; preds = %"_ZZN3gmx15equalIgnoreDashERKNSt7__cxx1112basic_stringIcSt11char_traitsIcESaIcEEES7_ENK3$_0clERKcSA_.exit.i", %6, %2
  %22 = phi i1 [ false, %2 ], [ true, %6 ], [ %19, %"_ZZN3gmx15equalIgnoreDashERKNSt7__cxx1112basic_stringIcSt11char_traitsIcESaIcEEES7_ENK3$_0clERKcSA_.exit.i" ]
  ret i1 %22
}